Certificate:
    Data:
        Version: 3 (0x2)
        Serial Number: 4 (0x4)
        Signature Algorithm: sha256WithRSAEncryption
        Issuer: C=CN, ST=Sichuan, L=Chengdu, O=Racpast Ltd, CN=Racpast Internet Fake Authority CA
        Validity
            Not Before: Dec 23 22:14:47 2024 GMT
            Not After : Dec 21 22:14:47 2034 GMT
        Subject: C=CN, ST=Sichuan, L=Chengdu, O=Racpast Ltd, CN=Racpast Internet Fake Authority CA
        Subject Public Key Info:
            Public Key Algorithm: rsaEncryption
                Public-Key: (2048 bit)
                Modulus:
                    00:96:de:97:ed:07:65:8e:a4:ba:4a:24:1d:81:d3:
                    b9:57:19:c0:91:3e:e2:0c:82:e3:2b:af:bb:0a:5e:
                    f4:ff:4f:eb:22:88:1d:44:f7:b9:4b:cb:f1:f9:72:
                    1e:ff:8e:8b:a3:81:1a:ee:77:98:29:49:b8:03:c1:
                    30:ad:9f:47:82:f4:15:6d:5e:71:4b:13:d3:e1:8b:
                    d4:b2:4c:5f:de:45:c4:52:25:be:74:21:7f:22:ea:
                    44:a9:1c:3c:f7:ce:a3:f7:6d:c0:73:22:21:e1:f8:
                    d6:0b:65:10:8f:4a:9b:a5:2b:3f:57:9a:7d:a8:4d:
                    9c:c5:1f:32:e4:48:2a:46:3e:1f:c7:6c:f0:06:1d:
                    8c:51:ea:15:d5:99:f7:75:33:cf:9e:b5:64:00:2a:
                    09:7a:e1:0e:64:f6:00:3e:40:0a:17:86:00:43:a0:
                    41:be:2b:ab:07:c5:31:80:52:58:ca:24:3a:43:d5:
                    84:52:9c:b9:d2:25:dd:69:76:8f:e3:6a:75:99:9d:
                    a1:26:36:0e:7b:7b:8e:e6:8f:24:99:6f:ed:bd:6b:
                    a7:9c:e6:98:16:43:cd:58:3e:81:43:3d:e7:dd:bc:
                    1d:92:a1:57:90:ed:59:f4:93:89:7d:f4:ef:53:29:
                    fa:ac:d3:fa:c1:eb:91:5c:fe:cd:aa:24:5f:37:76:
                    de:91
                Exponent: 65537 (0x10001)
        X509v3 extensions:
            X509v3 Key Usage: 
                Digital Signature
            X509v3 Extended Key Usage: 
                TLS Web Server Authentication, TLS Web Client Authentication
            X509v3 Basic Constraints: 
                CA:FALSE
            X509v3 Subject Alternative Name: 
                DNS:archiveofourown.org, DNS:*.archiveofourown.org, DNS:e-hentai.org, DNS:*.e-hentai.org, DNS:exhentai.org, DNS:*.exhentai.org, DNS:ehgt.org, DNS:*.ehgt.org, DNS:nyaa.si, DNS:*.nyaa.si, DNS:pixiv.net, DNS:*.pixiv.net, DNS:*.*.pixiv.net, DNS:fanbox.cc, DNS:*.fanbox.cc, DNS:pximg.net, DNS:*.pximg.net, DNS:pixiv.org, DNS:*.pixiv.org, DNS:pornhub.com, DNS:*.pornhub.com, DNS:gstatic.com, DNS:*.gstatic.com, DNS:jsdelivr.net, DNS:*.jsdelivr.net, DNS:steamcommunity.com, DNS:*.steamcommunity.com, DNS:wikipedia.org, DNS:*.wikipedia.org, DNS:*.m.wikipedia.org, DNS:wikimedia.org, DNS:*.wikimedia.org, DNS:*.m.wikimedia.org, DNS:wikivoyage.org, DNS:*.wikivoyage.org, DNS:*.m.wikivoyage.org, DNS:wiktionary.org, DNS:*.wiktionary.org, DNS:*.m.wiktionary.org, DNS:wikibooks.org, DNS:*.wikibooks.org, DNS:*.m.wikibooks.org, DNS:wikinews.org, DNS:*.wikinews.org, DNS:*.m.wikinews.org, DNS:wikidata.org, DNS:*.wikidata.org, DNS:wikiversity.org, DNS:*.wikiversity.org, DNS:*.m.wikiversity.org, DNS:wikiquote.org, DNS:*.wikiquote.org, DNS:*.m.wikiquote.org, DNS:mediawiki.org, DNS:*.mediawiki.org, DNS:wikisource.org, DNS:*.wikisource.org, DNS:*.m.wikisource.org, DNS:wikifunctions.org, DNS:*.wikifunctions.org, DNS:wallhaven.cc, DNS:*.wallhaven.cc, DNS:apkmirror.com, DNS:*.apkmirror.com, DNS:amazon.co.jp, DNS:*.amazon.co.jp, DNS:bbc.com, DNS:*.bbc.com, DNS:*.*.bbc.com, DNS:bbc.co.uk, DNS:*.bbc.co.uk, DNS:*.*.bbc.co.uk, DNS:bbci.co.uk, DNS:*.bbci.co.uk, DNS:*.*.bbci.co.uk, DNS:etsy.com, DNS:*.etsy.com, DNS:pinimg.com, DNS:*.pinimg.com, DNS:pinterest.com, DNS:*.pinterest.com, DNS:f-droid.org, DNS:*.f-droid.org, DNS:google.com, DNS:*.google.com, DNS:about.google, DNS:*.google, DNS:*.google.*, DNS:*.*.google.*, DNS:okx.com, DNS:*.okx.com, DNS:ok.ru, DNS:*.ok.ru, DNS:telegram.org, DNS:*.telegram.org, DNS:t.me, DNS:*.t.me, DNS:telegram.me, DNS:*.telegram.me, DNS:cdn-telegram.org, DNS:*.cdn-telegram.org, DNS:nytimes.com, DNS:*.nytimes.com, DNS:*.*.nytimes.com, DNS:nyt.com, DNS:*.nyt.com, DNS:proton.me, DNS:*.proton.me, DNS:youtube.com, DNS:*.youtube.com, DNS:ytimg.com, DNS:*.ytimg.com, DNS:ggpht.com, DNS:*.ggpht.com, DNS:googlevideo.com, DNS:*.googlevideo.com, DNS:1lib.sk, DNS:*.1lib.sk, DNS:z-lib.fm, DNS:*.z-lib.fm
            X509v3 Subject Key Identifier: 
                49:BE:78:3A:B1:44:86:EF:54:9A:56:E6:FC:A6:97:2A:0A:F0:63:D7
            X509v3 Authority Key Identifier: 
                7F:C6:13:FF:C5:E3:98:FA:72:58:28:15:C4:1C:CE:A5:01:1A:86:AA
    Signature Algorithm: sha256WithRSAEncryption
    Signature Value:
        08:9b:d6:d7:84:3c:61:39:1a:54:d8:76:6f:87:98:d7:3a:2b:
        af:f1:ec:b5:21:c6:80:49:2b:97:ce:e1:5f:8e:83:33:b2:25:
        f4:eb:ff:43:1e:2e:6a:b5:b8:c7:92:d3:2c:1b:cb:69:4b:85:
        b6:3e:67:f8:4f:3f:4a:f3:7e:41:a3:30:88:73:aa:b5:bb:e5:
        af:4d:93:c3:b8:e4:bd:a3:d0:7c:ef:42:1b:ca:a9:db:6b:09:
        02:6f:67:b8:8d:1e:14:cb:96:36:5a:de:05:fe:7c:ff:47:5a:
        03:f1:4f:51:a9:12:82:49:a5:62:d9:7d:da:64:54:1f:21:aa:
        30:e1:23:3b:b4:a4:dd:ff:70:05:f8:ed:e2:be:82:64:dc:07:
        57:b2:bb:ea:9f:0a:1f:83:3c:1a:1d:b4:55:21:f5:1a:da:e8:
        11:31:50:a8:4b:93:35:90:78:52:42:89:a0:78:0c:96:92:53:
        4a:d7:28:6f:8d:49:ec:42:78:be:f0:a0:03:86:ee:58:36:fd:
        7e:18:44:5b:30:fa:87:4d:d7:ff:ab:90:3c:25:23:9d:18:df:
        4f:f9:5b:a4:35:4f:d0:2a:ab:96:e9:33:8b:e2:54:43:7d:1e:
        65:f9:c0:84:9e:3e:a1:df:0f:55:05:3d:3a:16:e8:9d:64:b1:
        81:6e:f0:c8
-----BEGIN CERTIFICATE-----
MIIKujCCCaKgAwIBAgIBBDANBgkqhkiG9w0BAQsFADB0MQswCQYDVQQGEwJDTjEQ
MA4GA1UECAwHU2ljaHVhbjEQMA4GA1UEBwwHQ2hlbmdkdTEUMBIGA1UECgwLUmFj
cGFzdCBMdGQxKzApBgNVBAMMIlJhY3Bhc3QgSW50ZXJuZXQgRmFrZSBBdXRob3Jp
dHkgQ0EwHhcNMjQxMjIzMjIxNDQ3WhcNMzQxMjIxMjIxNDQ3WjB0MQswCQYDVQQG
EwJDTjEQMA4GA1UECAwHU2ljaHVhbjEQMA4GA1UEBwwHQ2hlbmdkdTEUMBIGA1UE
CgwLUmFjcGFzdCBMdGQxKzApBgNVBAMMIlJhY3Bhc3QgSW50ZXJuZXQgRmFrZSBB
dXRob3JpdHkgQ0EwggEiMA0GCSqGSIb3DQEBAQUAA4IBDwAwggEKAoIBAQCW3pft
B2WOpLpKJB2B07lXGcCRPuIMguMrr7sKXvT/T+siiB1E97lLy/H5ch7/joujgRru
d5gpSbgDwTCtn0eC9BVtXnFLE9Phi9SyTF/eRcRSJb50IX8i6kSpHDz3zqP3bcBz
IiHh+NYLZRCPSpulKz9Xmn2oTZzFHzLkSCpGPh/HbPAGHYxR6hXVmfd1M8+etWQA
Kgl64Q5k9gA+QAoXhgBDoEG+K6sHxTGAUljKJDpD1YRSnLnSJd1pdo/janWZnaEm
Ng57e47mjySZb+29a6ec5pgWQ81YPoFDPefdvB2SoVeQ7Vn0k4l99O9TKfqs0/rB
65Fc/s2qJF83dt6RAgMBAAGjggdVMIIHUTALBgNVHQ8EBAMCB4AwHQYDVR0lBBYw
FAYIKwYBBQUHAwEGCCsGAQUFBwMCMAkGA1UdEwQCMAAwggbWBgNVHREEggbNMIIG
yYITYXJjaGl2ZW9mb3Vyb3duLm9yZ4IVKi5hcmNoaXZlb2ZvdXJvd24ub3Jnggxl
LWhlbnRhaS5vcmeCDiouZS1oZW50YWkub3JnggxleGhlbnRhaS5vcmeCDiouZXho
ZW50YWkub3JngghlaGd0Lm9yZ4IKKi5laGd0Lm9yZ4IHbnlhYS5zaYIJKi5ueWFh
LnNpgglwaXhpdi5uZXSCCyoucGl4aXYubmV0gg0qLioucGl4aXYubmV0gglmYW5i
b3guY2OCCyouZmFuYm94LmNjgglweGltZy5uZXSCCyoucHhpbWcubmV0gglwaXhp
di5vcmeCCyoucGl4aXYub3Jnggtwb3JuaHViLmNvbYINKi5wb3JuaHViLmNvbYIL
Z3N0YXRpYy5jb22CDSouZ3N0YXRpYy5jb22CDGpzZGVsaXZyLm5ldIIOKi5qc2Rl
bGl2ci5uZXSCEnN0ZWFtY29tbXVuaXR5LmNvbYIUKi5zdGVhbWNvbW11bml0eS5j
b22CDXdpa2lwZWRpYS5vcmeCDyoud2lraXBlZGlhLm9yZ4IRKi5tLndpa2lwZWRp
YS5vcmeCDXdpa2ltZWRpYS5vcmeCDyoud2lraW1lZGlhLm9yZ4IRKi5tLndpa2lt
ZWRpYS5vcmeCDndpa2l2b3lhZ2Uub3JnghAqLndpa2l2b3lhZ2Uub3JnghIqLm0u
d2lraXZveWFnZS5vcmeCDndpa3Rpb25hcnkub3JnghAqLndpa3Rpb25hcnkub3Jn
ghIqLm0ud2lrdGlvbmFyeS5vcmeCDXdpa2lib29rcy5vcmeCDyoud2lraWJvb2tz
Lm9yZ4IRKi5tLndpa2lib29rcy5vcmeCDHdpa2luZXdzLm9yZ4IOKi53aWtpbmV3
cy5vcmeCECoubS53aWtpbmV3cy5vcmeCDHdpa2lkYXRhLm9yZ4IOKi53aWtpZGF0
YS5vcmeCD3dpa2l2ZXJzaXR5Lm9yZ4IRKi53aWtpdmVyc2l0eS5vcmeCEyoubS53
aWtpdmVyc2l0eS5vcmeCDXdpa2lxdW90ZS5vcmeCDyoud2lraXF1b3RlLm9yZ4IR
Ki5tLndpa2lxdW90ZS5vcmeCDW1lZGlhd2lraS5vcmeCDyoubWVkaWF3aWtpLm9y
Z4IOd2lraXNvdXJjZS5vcmeCECoud2lraXNvdXJjZS5vcmeCEioubS53aWtpc291
cmNlLm9yZ4IRd2lraWZ1bmN0aW9ucy5vcmeCEyoud2lraWZ1bmN0aW9ucy5vcmeC
DHdhbGxoYXZlbi5jY4IOKi53YWxsaGF2ZW4uY2OCDWFwa21pcnJvci5jb22CDyou
YXBrbWlycm9yLmNvbYIMYW1hem9uLmNvLmpwgg4qLmFtYXpvbi5jby5qcIIHYmJj
LmNvbYIJKi5iYmMuY29tggsqLiouYmJjLmNvbYIJYmJjLmNvLnVrggsqLmJiYy5j
by51a4INKi4qLmJiYy5jby51a4IKYmJjaS5jby51a4IMKi5iYmNpLmNvLnVrgg4q
LiouYmJjaS5jby51a4IIZXRzeS5jb22CCiouZXRzeS5jb22CCnBpbmltZy5jb22C
DCoucGluaW1nLmNvbYINcGludGVyZXN0LmNvbYIPKi5waW50ZXJlc3QuY29tggtm
LWRyb2lkLm9yZ4INKi5mLWRyb2lkLm9yZ4IKZ29vZ2xlLmNvbYIMKi5nb29nbGUu
Y29tggxhYm91dC5nb29nbGWCCCouZ29vZ2xlggoqLmdvb2dsZS4qggwqLiouZ29v
Z2xlLiqCB29reC5jb22CCSoub2t4LmNvbYIFb2sucnWCByoub2sucnWCDHRlbGVn
cmFtLm9yZ4IOKi50ZWxlZ3JhbS5vcmeCBHQubWWCBioudC5tZYILdGVsZWdyYW0u
bWWCDSoudGVsZWdyYW0ubWWCEGNkbi10ZWxlZ3JhbS5vcmeCEiouY2RuLXRlbGVn
cmFtLm9yZ4ILbnl0aW1lcy5jb22CDSoubnl0aW1lcy5jb22CDyouKi5ueXRpbWVz
LmNvbYIHbnl0LmNvbYIJKi5ueXQuY29tgglwcm90b24ubWWCCyoucHJvdG9uLm1l
ggt5b3V0dWJlLmNvbYINKi55b3V0dWJlLmNvbYIJeXRpbWcuY29tggsqLnl0aW1n
LmNvbYIJZ2dwaHQuY29tggsqLmdncGh0LmNvbYIPZ29vZ2xldmlkZW8uY29tghEq
Lmdvb2dsZXZpZGVvLmNvbYIHMWxpYi5za4IJKi4xbGliLnNrggh6LWxpYi5mbYIK
Ki56LWxpYi5mbTAdBgNVHQ4EFgQUSb54OrFEhu9Umlbm/KaXKgrwY9cwHwYDVR0j
BBgwFoAUf8YT/8XjmPpyWCgVxBzOpQEahqowDQYJKoZIhvcNAQELBQADggEBAAib
1teEPGE5GlTYdm+HmNc6K6/x7LUhxoBJK5fO4V+OgzOyJfTr/0MeLmq1uMeS0ywb
y2lLhbY+Z/hPP0rzfkGjMIhzqrW75a9Nk8O45L2j0HzvQhvKqdtrCQJvZ7iNHhTL
ljZa3gX+fP9HWgPxT1GpEoJJpWLZfdpkVB8hqjDhIzu0pN3/cAX47eK+gmTcB1ey
u+qfCh+DPBodtFUh9Rra6BExUKhLkzWQeFJCiaB4DJaSU0rXKG+NSexCeL7woAOG
7lg2/X4YRFsw+odN1/+rkDwlI50Y30/5W6Q1T9Aqq5bpM4viVEN9HmX5wISePqHf
D1UFPToW6J1ksYFu8Mg=
-----END CERTIFICATE-----
