Certificate:
    Data:
        Version: 3 (0x2)
        Serial Number: 1 (0x1)
        Signature Algorithm: sha256WithRSAEncryption
        Issuer: C=CN, ST=Sichuan, L=Chengdu, O=Racpast Ltd, CN=Racpast Internet Fake Authority CA
        Validity
            Not Before: Dec 22 18:26:44 2024 GMT
            Not After : Dec 20 18:26:44 2034 GMT
        Subject: C=CN, ST=Sichuan, L=Chengdu, O=Racpast Ltd, CN=Racpast Internet Fake Authority CA
        Subject Public Key Info:
            Public Key Algorithm: rsaEncryption
                Public-Key: (2048 bit)
                Modulus:
                    00:96:de:97:ed:07:65:8e:a4:ba:4a:24:1d:81:d3:
                    b9:57:19:c0:91:3e:e2:0c:82:e3:2b:af:bb:0a:5e:
                    f4:ff:4f:eb:22:88:1d:44:f7:b9:4b:cb:f1:f9:72:
                    1e:ff:8e:8b:a3:81:1a:ee:77:98:29:49:b8:03:c1:
                    30:ad:9f:47:82:f4:15:6d:5e:71:4b:13:d3:e1:8b:
                    d4:b2:4c:5f:de:45:c4:52:25:be:74:21:7f:22:ea:
                    44:a9:1c:3c:f7:ce:a3:f7:6d:c0:73:22:21:e1:f8:
                    d6:0b:65:10:8f:4a:9b:a5:2b:3f:57:9a:7d:a8:4d:
                    9c:c5:1f:32:e4:48:2a:46:3e:1f:c7:6c:f0:06:1d:
                    8c:51:ea:15:d5:99:f7:75:33:cf:9e:b5:64:00:2a:
                    09:7a:e1:0e:64:f6:00:3e:40:0a:17:86:00:43:a0:
                    41:be:2b:ab:07:c5:31:80:52:58:ca:24:3a:43:d5:
                    84:52:9c:b9:d2:25:dd:69:76:8f:e3:6a:75:99:9d:
                    a1:26:36:0e:7b:7b:8e:e6:8f:24:99:6f:ed:bd:6b:
                    a7:9c:e6:98:16:43:cd:58:3e:81:43:3d:e7:dd:bc:
                    1d:92:a1:57:90:ed:59:f4:93:89:7d:f4:ef:53:29:
                    fa:ac:d3:fa:c1:eb:91:5c:fe:cd:aa:24:5f:37:76:
                    de:91
                Exponent: 65537 (0x10001)
        X509v3 extensions:
            X509v3 Key Usage: 
                Digital Signature
            X509v3 Extended Key Usage: 
                TLS Web Server Authentication, TLS Web Client Authentication
            X509v3 Basic Constraints: 
                CA:FALSE
            X509v3 Subject Alternative Name: 
                DNS:archiveofourown.org, DNS:*.archiveofourown.org, DNS:e-hentai.org, DNS:*.e-hentai.org, DNS:exhentai.org, DNS:*.exhentai.org, DNS:ehgt.org, DNS:*.ehgt.org, DNS:nyaa.si, DNS:*.nyaa.si, DNS:pixiv.net, DNS:*.pixiv.net, DNS:fanbox.cc, DNS:*.fanbox.cc, DNS:pximg.net, DNS:*.pximg.net, DNS:pixiv.org, DNS:*.pixiv.org, DNS:pornhub.com, DNS:*.pornhub.com, DNS:gstatic.com, DNS:*.gstatic.com, DNS:jsdelivr.net, DNS:*.jsdelivr.net, DNS:steamcommunity.com, DNS:*.steamcommunity.com, DNS:wikipedia.org, DNS:*.wikipedia.org, DNS:*.m.wikipedia.org, DNS:wikimedia.org, DNS:*.wikimedia.org, DNS:*.m.wikimedia.org, DNS:wikivoyage.org, DNS:*.wikivoyage.org, DNS:*.m.wikivoyage.org, DNS:wiktionary.org, DNS:*.wiktionary.org, DNS:*.m.wiktionary.org, DNS:wikibooks.org, DNS:*.wikibooks.org, DNS:*.m.wikibooks.org, DNS:wikinews.org, DNS:*.wikinews.org, DNS:*.m.wikinews.org, DNS:wikidata.org, DNS:*.wikidata.org, DNS:wikiversity.org, DNS:*.wikiversity.org, DNS:*.m.wikiversity.org, DNS:wikiquote.org, DNS:*.wikiquote.org, DNS:*.m.wikiquote.org, DNS:mediawiki.org, DNS:*.mediawiki.org, DNS:wikisource.org, DNS:*.wikisource.org, DNS:*.m.wikisource.org, DNS:wikifunctions.org, DNS:*.wikifunctions.org, DNS:wallhaven.cc, DNS:*.wallhaven.cc, DNS:apkmirror.com, DNS:*.apkmirror.com, DNS:amazon.co.jp, DNS:*.amazon.co.jp, DNS:bbc.com, DNS:*.bbc.com, DNS:*.*.bbc.com, DNS:bbc.co.uk, DNS:*.bbc.co.uk, DNS:*.*.bbc.co.uk, DNS:bbci.co.uk, DNS:*.bbci.co.uk, DNS:*.*.bbci.co.uk, DNS:etsy.com, DNS:*.etsy.com, DNS:pinimg.com, DNS:*.pinimg.com, DNS:pinterest.com, DNS:*.pinterest.com, DNS:f-droid.org, DNS:*.f-droid.org, DNS:google.com, DNS:*.google.com, DNS:google.md, DNS:*.google.md, DNS:google.ru, DNS:*.google.ru, DNS:okx.com, DNS:*.okx.com, DNS:ok.ru, DNS:*.ok.ru, DNS:telegram.org, DNS:*.telegram.org, DNS:t.me, DNS:*.t.me, DNS:telegram.me, DNS:*.telegram.me, DNS:cdn-telegram.org, DNS:*.cdn-telegram.org, DNS:nytimes.com, DNS:*.nytimes.com, DNS:*.*.nytimes.com, DNS:nyt.com, DNS:*.nyt.com, DNS:proton.me, DNS:*.proton.me, DNS:youtube.com, DNS:*.youtube.com, DNS:ytimg.com, DNS:*.ytimg.com, DNS:ggpht.com, DNS:*.ggpht.com, DNS:googlevideo.com, DNS:*.googlevideo.com, DNS:1lib.sk, DNS:*.1lib.sk, DNS:z-lib.fm, DNS:*.z-lib.fm
            X509v3 Subject Key Identifier: 
                49:BE:78:3A:B1:44:86:EF:54:9A:56:E6:FC:A6:97:2A:0A:F0:63:D7
            X509v3 Authority Key Identifier: 
                7F:C6:13:FF:C5:E3:98:FA:72:58:28:15:C4:1C:CE:A5:01:1A:86:AA
    Signature Algorithm: sha256WithRSAEncryption
    Signature Value:
        71:36:0d:65:8c:2f:b9:02:5d:2d:29:46:08:f1:fd:fb:bf:f2:
        8c:d0:7f:fe:6c:71:3b:a6:68:27:bf:2b:f7:c9:d8:64:98:a0:
        ba:12:e3:ab:dd:f4:9a:cf:61:8d:7e:87:3d:39:86:1a:53:1e:
        ac:d0:87:95:ae:d6:06:1a:6e:14:47:a4:21:50:bf:34:29:ac:
        2e:6d:62:6b:e0:78:cb:67:1e:b4:52:1d:4b:64:b7:d8:eb:1c:
        dc:e4:e8:79:e1:4f:d6:51:f3:a9:cb:43:1a:1c:99:42:05:9b:
        0f:64:ee:9e:3f:98:b6:f0:53:3e:42:f5:35:79:7e:af:55:17:
        0a:be:37:e8:cc:b6:9c:e5:f6:9d:a0:78:25:04:88:f5:12:30:
        d0:5c:c5:5b:fa:08:da:8a:12:dc:f8:ea:91:ec:44:f1:25:69:
        db:ae:d9:ff:52:c9:39:91:e6:f6:f0:41:f0:e3:b6:70:d1:64:
        24:bb:10:ae:df:e3:68:11:f9:7b:ea:80:d7:d2:45:b2:76:b6:
        6e:6e:d5:92:19:a7:9b:7e:e0:39:a1:45:8f:d0:72:42:89:62:
        89:43:36:3d:34:21:ec:94:a2:96:a2:51:da:f4:d3:f8:a6:a6:
        b9:97:61:35:54:88:a6:2c:8e:2e:41:b9:35:a4:0d:5c:5d:58:
        fe:eb:f5:44
-----BEGIN CERTIFICATE-----
MIIKqTCCCZGgAwIBAgIBATANBgkqhkiG9w0BAQsFADB0MQswCQYDVQQGEwJDTjEQ
MA4GA1UECAwHU2ljaHVhbjEQMA4GA1UEBwwHQ2hlbmdkdTEUMBIGA1UECgwLUmFj
cGFzdCBMdGQxKzApBgNVBAMMIlJhY3Bhc3QgSW50ZXJuZXQgRmFrZSBBdXRob3Jp
dHkgQ0EwHhcNMjQxMjIyMTgyNjQ0WhcNMzQxMjIwMTgyNjQ0WjB0MQswCQYDVQQG
EwJDTjEQMA4GA1UECAwHU2ljaHVhbjEQMA4GA1UEBwwHQ2hlbmdkdTEUMBIGA1UE
CgwLUmFjcGFzdCBMdGQxKzApBgNVBAMMIlJhY3Bhc3QgSW50ZXJuZXQgRmFrZSBB
dXRob3JpdHkgQ0EwggEiMA0GCSqGSIb3DQEBAQUAA4IBDwAwggEKAoIBAQCW3pft
B2WOpLpKJB2B07lXGcCRPuIMguMrr7sKXvT/T+siiB1E97lLy/H5ch7/joujgRru
d5gpSbgDwTCtn0eC9BVtXnFLE9Phi9SyTF/eRcRSJb50IX8i6kSpHDz3zqP3bcBz
IiHh+NYLZRCPSpulKz9Xmn2oTZzFHzLkSCpGPh/HbPAGHYxR6hXVmfd1M8+etWQA
Kgl64Q5k9gA+QAoXhgBDoEG+K6sHxTGAUljKJDpD1YRSnLnSJd1pdo/janWZnaEm
Ng57e47mjySZb+29a6ec5pgWQ81YPoFDPefdvB2SoVeQ7Vn0k4l99O9TKfqs0/rB
65Fc/s2qJF83dt6RAgMBAAGjggdEMIIHQDALBgNVHQ8EBAMCB4AwHQYDVR0lBBYw
FAYIKwYBBQUHAwEGCCsGAQUFBwMCMAkGA1UdEwQCMAAwggbFBgNVHREEgga8MIIG
uIITYXJjaGl2ZW9mb3Vyb3duLm9yZ4IVKi5hcmNoaXZlb2ZvdXJvd24ub3Jnggxl
LWhlbnRhaS5vcmeCDiouZS1oZW50YWkub3JnggxleGhlbnRhaS5vcmeCDiouZXho
ZW50YWkub3JngghlaGd0Lm9yZ4IKKi5laGd0Lm9yZ4IHbnlhYS5zaYIJKi5ueWFh
LnNpgglwaXhpdi5uZXSCCyoucGl4aXYubmV0gglmYW5ib3guY2OCCyouZmFuYm94
LmNjgglweGltZy5uZXSCCyoucHhpbWcubmV0gglwaXhpdi5vcmeCCyoucGl4aXYu
b3Jnggtwb3JuaHViLmNvbYINKi5wb3JuaHViLmNvbYILZ3N0YXRpYy5jb22CDSou
Z3N0YXRpYy5jb22CDGpzZGVsaXZyLm5ldIIOKi5qc2RlbGl2ci5uZXSCEnN0ZWFt
Y29tbXVuaXR5LmNvbYIUKi5zdGVhbWNvbW11bml0eS5jb22CDXdpa2lwZWRpYS5v
cmeCDyoud2lraXBlZGlhLm9yZ4IRKi5tLndpa2lwZWRpYS5vcmeCDXdpa2ltZWRp
YS5vcmeCDyoud2lraW1lZGlhLm9yZ4IRKi5tLndpa2ltZWRpYS5vcmeCDndpa2l2
b3lhZ2Uub3JnghAqLndpa2l2b3lhZ2Uub3JnghIqLm0ud2lraXZveWFnZS5vcmeC
Dndpa3Rpb25hcnkub3JnghAqLndpa3Rpb25hcnkub3JnghIqLm0ud2lrdGlvbmFy
eS5vcmeCDXdpa2lib29rcy5vcmeCDyoud2lraWJvb2tzLm9yZ4IRKi5tLndpa2li
b29rcy5vcmeCDHdpa2luZXdzLm9yZ4IOKi53aWtpbmV3cy5vcmeCECoubS53aWtp
bmV3cy5vcmeCDHdpa2lkYXRhLm9yZ4IOKi53aWtpZGF0YS5vcmeCD3dpa2l2ZXJz
aXR5Lm9yZ4IRKi53aWtpdmVyc2l0eS5vcmeCEyoubS53aWtpdmVyc2l0eS5vcmeC
DXdpa2lxdW90ZS5vcmeCDyoud2lraXF1b3RlLm9yZ4IRKi5tLndpa2lxdW90ZS5v
cmeCDW1lZGlhd2lraS5vcmeCDyoubWVkaWF3aWtpLm9yZ4IOd2lraXNvdXJjZS5v
cmeCECoud2lraXNvdXJjZS5vcmeCEioubS53aWtpc291cmNlLm9yZ4IRd2lraWZ1
bmN0aW9ucy5vcmeCEyoud2lraWZ1bmN0aW9ucy5vcmeCDHdhbGxoYXZlbi5jY4IO
Ki53YWxsaGF2ZW4uY2OCDWFwa21pcnJvci5jb22CDyouYXBrbWlycm9yLmNvbYIM
YW1hem9uLmNvLmpwgg4qLmFtYXpvbi5jby5qcIIHYmJjLmNvbYIJKi5iYmMuY29t
ggsqLiouYmJjLmNvbYIJYmJjLmNvLnVrggsqLmJiYy5jby51a4INKi4qLmJiYy5j
by51a4IKYmJjaS5jby51a4IMKi5iYmNpLmNvLnVrgg4qLiouYmJjaS5jby51a4II
ZXRzeS5jb22CCiouZXRzeS5jb22CCnBpbmltZy5jb22CDCoucGluaW1nLmNvbYIN
cGludGVyZXN0LmNvbYIPKi5waW50ZXJlc3QuY29tggtmLWRyb2lkLm9yZ4INKi5m
LWRyb2lkLm9yZ4IKZ29vZ2xlLmNvbYIMKi5nb29nbGUuY29tgglnb29nbGUubWSC
CyouZ29vZ2xlLm1kgglnb29nbGUucnWCCyouZ29vZ2xlLnJ1ggdva3guY29tggkq
Lm9reC5jb22CBW9rLnJ1ggcqLm9rLnJ1ggx0ZWxlZ3JhbS5vcmeCDioudGVsZWdy
YW0ub3JnggR0Lm1lggYqLnQubWWCC3RlbGVncmFtLm1lgg0qLnRlbGVncmFtLm1l
ghBjZG4tdGVsZWdyYW0ub3JnghIqLmNkbi10ZWxlZ3JhbS5vcmeCC255dGltZXMu
Y29tgg0qLm55dGltZXMuY29tgg8qLioubnl0aW1lcy5jb22CB255dC5jb22CCSou
bnl0LmNvbYIJcHJvdG9uLm1lggsqLnByb3Rvbi5tZYILeW91dHViZS5jb22CDSou
eW91dHViZS5jb22CCXl0aW1nLmNvbYILKi55dGltZy5jb22CCWdncGh0LmNvbYIL
Ki5nZ3BodC5jb22CD2dvb2dsZXZpZGVvLmNvbYIRKi5nb29nbGV2aWRlby5jb22C
BzFsaWIuc2uCCSouMWxpYi5za4IIei1saWIuZm2CCiouei1saWIuZm0wHQYDVR0O
BBYEFEm+eDqxRIbvVJpW5vymlyoK8GPXMB8GA1UdIwQYMBaAFH/GE//F45j6clgo
FcQczqUBGoaqMA0GCSqGSIb3DQEBCwUAA4IBAQBxNg1ljC+5Al0tKUYI8f37v/KM
0H/+bHE7pmgnvyv3ydhkmKC6EuOr3fSaz2GNfoc9OYYaUx6s0IeVrtYGGm4UR6Qh
UL80KawubWJr4HjLZx60Uh1LZLfY6xzc5Oh54U/WUfOpy0MaHJlCBZsPZO6eP5i2
8FM+QvU1eX6vVRcKvjfozLac5fadoHglBIj1EjDQXMVb+gjaihLc+OqR7ETxJWnb
rtn/Usk5keb28EHw47Zw0WQkuxCu3+NoEfl76oDX0kWydrZubtWSGaebfuA5oUWP
0HJCiWKJQzY9NCHslKKWolHa9NP4pqa5l2E1VIimLI4uQbk1pA1cXVj+6/VE
-----END CERTIFICATE-----
