Certificate:
    Data:
        Version: 3 (0x2)
        Serial Number: 1 (0x1)
        Signature Algorithm: sha256WithRSAEncryption
        Issuer: C=CN, ST=Sichuan, L=Chengdu, O=Racpast Ltd, CN=Racpast Internet Fake Authority CA
        Validity
            Not Before: Jan 12 00:36:56 2025 GMT
            Not After : Jan 10 00:36:56 2035 GMT
        Subject: C=CN, ST=Sichuan, L=Chengdu, O=Racpast Ltd, CN=Racpast Internet Fake Authority CA
        Subject Public Key Info:
            Public Key Algorithm: rsaEncryption
                Public-Key: (2048 bit)
                Modulus:
                    00:96:de:97:ed:07:65:8e:a4:ba:4a:24:1d:81:d3:
                    b9:57:19:c0:91:3e:e2:0c:82:e3:2b:af:bb:0a:5e:
                    f4:ff:4f:eb:22:88:1d:44:f7:b9:4b:cb:f1:f9:72:
                    1e:ff:8e:8b:a3:81:1a:ee:77:98:29:49:b8:03:c1:
                    30:ad:9f:47:82:f4:15:6d:5e:71:4b:13:d3:e1:8b:
                    d4:b2:4c:5f:de:45:c4:52:25:be:74:21:7f:22:ea:
                    44:a9:1c:3c:f7:ce:a3:f7:6d:c0:73:22:21:e1:f8:
                    d6:0b:65:10:8f:4a:9b:a5:2b:3f:57:9a:7d:a8:4d:
                    9c:c5:1f:32:e4:48:2a:46:3e:1f:c7:6c:f0:06:1d:
                    8c:51:ea:15:d5:99:f7:75:33:cf:9e:b5:64:00:2a:
                    09:7a:e1:0e:64:f6:00:3e:40:0a:17:86:00:43:a0:
                    41:be:2b:ab:07:c5:31:80:52:58:ca:24:3a:43:d5:
                    84:52:9c:b9:d2:25:dd:69:76:8f:e3:6a:75:99:9d:
                    a1:26:36:0e:7b:7b:8e:e6:8f:24:99:6f:ed:bd:6b:
                    a7:9c:e6:98:16:43:cd:58:3e:81:43:3d:e7:dd:bc:
                    1d:92:a1:57:90:ed:59:f4:93:89:7d:f4:ef:53:29:
                    fa:ac:d3:fa:c1:eb:91:5c:fe:cd:aa:24:5f:37:76:
                    de:91
                Exponent: 65537 (0x10001)
        X509v3 extensions:
            X509v3 Key Usage: 
                Digital Signature
            X509v3 Extended Key Usage: 
                TLS Web Server Authentication, TLS Web Client Authentication
            X509v3 Basic Constraints: 
                CA:FALSE
            X509v3 Subject Alternative Name: 
                DNS:archiveofourown.org, DNS:*.archiveofourown.org, DNS:e-hentai.org, DNS:*.e-hentai.org, DNS:exhentai.org, DNS:*.exhentai.org, DNS:ehgt.org, DNS:*.ehgt.org, DNS:nyaa.si, DNS:*.nyaa.si, DNS:pixiv.net, DNS:*.pixiv.net, DNS:*.*.pixiv.net, DNS:fanbox.cc, DNS:*.fanbox.cc, DNS:pximg.net, DNS:*.pximg.net, DNS:pixiv.org, DNS:*.pixiv.org, DNS:pornhub.com, DNS:*.pornhub.com, DNS:gstatic.com, DNS:*.gstatic.com, DNS:jsdelivr.net, DNS:*.jsdelivr.net, DNS:steamcommunity.com, DNS:*.steamcommunity.com, DNS:wikipedia.org, DNS:*.wikipedia.org, DNS:*.m.wikipedia.org, DNS:wikimedia.org, DNS:*.wikimedia.org, DNS:*.m.wikimedia.org, DNS:wikivoyage.org, DNS:*.wikivoyage.org, DNS:*.m.wikivoyage.org, DNS:wiktionary.org, DNS:*.wiktionary.org, DNS:*.m.wiktionary.org, DNS:wikibooks.org, DNS:*.wikibooks.org, DNS:*.m.wikibooks.org, DNS:wikinews.org, DNS:*.wikinews.org, DNS:*.m.wikinews.org, DNS:wikidata.org, DNS:*.wikidata.org, DNS:wikiversity.org, DNS:*.wikiversity.org, DNS:*.m.wikiversity.org, DNS:wikiquote.org, DNS:*.wikiquote.org, DNS:*.m.wikiquote.org, DNS:mediawiki.org, DNS:*.mediawiki.org, DNS:wikisource.org, DNS:*.wikisource.org, DNS:*.m.wikisource.org, DNS:wikifunctions.org, DNS:*.wikifunctions.org, DNS:wallhaven.cc, DNS:*.wallhaven.cc, DNS:apkmirror.com, DNS:*.apkmirror.com, DNS:amazon.co.jp, DNS:*.amazon.co.jp, DNS:bbc.com, DNS:*.bbc.com, DNS:*.*.bbc.com, DNS:bbc.co.uk, DNS:*.bbc.co.uk, DNS:*.*.bbc.co.uk, DNS:bbci.co.uk, DNS:*.bbci.co.uk, DNS:*.*.bbci.co.uk, DNS:etsy.com, DNS:*.etsy.com, DNS:pinimg.com, DNS:*.pinimg.com, DNS:pinterest.com, DNS:*.pinterest.com, DNS:f-droid.org, DNS:*.f-droid.org, DNS:google.com, DNS:*.google.com, DNS:about.google, DNS:*.google, DNS:google.cn, DNS:*.google.cn, DNS:okx.com, DNS:*.okx.com, DNS:ok.ru, DNS:*.ok.ru, DNS:telegram.org, DNS:*.telegram.org, DNS:t.me, DNS:*.t.me, DNS:telegram.me, DNS:*.telegram.me, DNS:cdn-telegram.org, DNS:*.cdn-telegram.org, DNS:nytimes.com, DNS:*.nytimes.com, DNS:*.*.nytimes.com, DNS:nyt.com, DNS:*.nyt.com, DNS:proton.me, DNS:*.proton.me, DNS:youtube.com, DNS:*.youtube.com, DNS:ytimg.com, DNS:*.ytimg.com, DNS:ggpht.com, DNS:*.ggpht.com, DNS:googlevideo.com, DNS:*.googlevideo.com, DNS:1lib.sk, DNS:*.1lib.sk, DNS:z-lib.fm, DNS:*.z-lib.fm, DNS:google.com.hk, DNS:*.google.com.hk, DNS:googleapis.com, DNS:*.googleapis.com, DNS:gelbooru.com, DNS:*.gelbooru.com, DNS:rmzsglng.com, DNS:*.rmzsglng.com, DNS:sankakucomplex.com, DNS:*.sankakucomplex.com, DNS:iwara.tv, DNS:*.iwara.tv, DNS:*.*.iwara.tv, DNS:github.com, DNS:*.github.com, DNS:githubusercontent.com, DNS:*.githubusercontent.com, DNS:githubassets.com, DNS:*.githubassets.com, DNS:github.io, DNS:*.github.io, DNS:duckduckgo.com, DNS:*.duckduckgo.com
            X509v3 Subject Key Identifier: 
                49:BE:78:3A:B1:44:86:EF:54:9A:56:E6:FC:A6:97:2A:0A:F0:63:D7
            X509v3 Authority Key Identifier: 
                7F:C6:13:FF:C5:E3:98:FA:72:58:28:15:C4:1C:CE:A5:01:1A:86:AA
    Signature Algorithm: sha256WithRSAEncryption
    Signature Value:
        8a:96:04:4e:0e:9f:b4:ce:aa:da:17:74:15:0f:2c:cd:71:20:
        7f:5f:b4:5d:08:de:83:c3:4a:54:57:8d:8c:d1:4f:c3:2b:af:
        7d:6a:63:97:a7:8c:83:07:32:3d:4f:38:ab:7a:1f:26:6a:41:
        a2:75:6e:b9:29:5d:6e:fa:03:04:47:ba:de:59:99:e2:41:30:
        22:8c:b3:63:4e:3f:af:d4:1d:26:dc:5a:14:80:67:f7:17:66:
        7a:15:85:f2:8c:a3:fc:b1:f2:6a:4c:13:b9:73:70:7a:f7:ac:
        ce:8c:d7:73:a0:40:fe:77:e3:06:64:2c:90:0c:82:ad:cb:65:
        46:b2:ef:a5:37:e7:b5:fa:55:85:82:ca:e8:26:cf:b0:01:37:
        60:1f:4e:49:22:33:0e:64:d0:80:af:40:ea:16:70:73:d1:51:
        7f:24:e4:e4:9b:86:8f:86:58:3c:65:aa:c0:1d:ed:f7:dd:45:
        8e:ef:a8:91:a9:76:c7:e5:b0:1f:ee:bb:0d:d8:6e:2d:30:fc:
        1a:fa:01:6f:54:a9:62:f6:2f:ae:e8:8e:88:cb:ae:b1:ea:62:
        cd:ff:ce:df:a8:fd:cd:dc:a8:52:4d:81:5e:8e:a8:e7:ab:69:
        18:97:70:9b:34:df:79:e4:6f:0d:db:09:f4:1f:9b:5b:bc:f4:
        d7:54:df:98
-----BEGIN CERTIFICATE-----
MIIMLjCCCxagAwIBAgIBATANBgkqhkiG9w0BAQsFADB0MQswCQYDVQQGEwJDTjEQ
MA4GA1UECAwHU2ljaHVhbjEQMA4GA1UEBwwHQ2hlbmdkdTEUMBIGA1UECgwLUmFj
cGFzdCBMdGQxKzApBgNVBAMMIlJhY3Bhc3QgSW50ZXJuZXQgRmFrZSBBdXRob3Jp
dHkgQ0EwHhcNMjUwMTEyMDAzNjU2WhcNMzUwMTEwMDAzNjU2WjB0MQswCQYDVQQG
EwJDTjEQMA4GA1UECAwHU2ljaHVhbjEQMA4GA1UEBwwHQ2hlbmdkdTEUMBIGA1UE
CgwLUmFjcGFzdCBMdGQxKzApBgNVBAMMIlJhY3Bhc3QgSW50ZXJuZXQgRmFrZSBB
dXRob3JpdHkgQ0EwggEiMA0GCSqGSIb3DQEBAQUAA4IBDwAwggEKAoIBAQCW3pft
B2WOpLpKJB2B07lXGcCRPuIMguMrr7sKXvT/T+siiB1E97lLy/H5ch7/joujgRru
d5gpSbgDwTCtn0eC9BVtXnFLE9Phi9SyTF/eRcRSJb50IX8i6kSpHDz3zqP3bcBz
IiHh+NYLZRCPSpulKz9Xmn2oTZzFHzLkSCpGPh/HbPAGHYxR6hXVmfd1M8+etWQA
Kgl64Q5k9gA+QAoXhgBDoEG+K6sHxTGAUljKJDpD1YRSnLnSJd1pdo/janWZnaEm
Ng57e47mjySZb+29a6ec5pgWQ81YPoFDPefdvB2SoVeQ7Vn0k4l99O9TKfqs0/rB
65Fc/s2qJF83dt6RAgMBAAGjggjJMIIIxTALBgNVHQ8EBAMCB4AwHQYDVR0lBBYw
FAYIKwYBBQUHAwEGCCsGAQUFBwMCMAkGA1UdEwQCMAAwgghKBgNVHREEgghBMIII
PYITYXJjaGl2ZW9mb3Vyb3duLm9yZ4IVKi5hcmNoaXZlb2ZvdXJvd24ub3Jnggxl
LWhlbnRhaS5vcmeCDiouZS1oZW50YWkub3JnggxleGhlbnRhaS5vcmeCDiouZXho
ZW50YWkub3JngghlaGd0Lm9yZ4IKKi5laGd0Lm9yZ4IHbnlhYS5zaYIJKi5ueWFh
LnNpgglwaXhpdi5uZXSCCyoucGl4aXYubmV0gg0qLioucGl4aXYubmV0gglmYW5i
b3guY2OCCyouZmFuYm94LmNjgglweGltZy5uZXSCCyoucHhpbWcubmV0gglwaXhp
di5vcmeCCyoucGl4aXYub3Jnggtwb3JuaHViLmNvbYINKi5wb3JuaHViLmNvbYIL
Z3N0YXRpYy5jb22CDSouZ3N0YXRpYy5jb22CDGpzZGVsaXZyLm5ldIIOKi5qc2Rl
bGl2ci5uZXSCEnN0ZWFtY29tbXVuaXR5LmNvbYIUKi5zdGVhbWNvbW11bml0eS5j
b22CDXdpa2lwZWRpYS5vcmeCDyoud2lraXBlZGlhLm9yZ4IRKi5tLndpa2lwZWRp
YS5vcmeCDXdpa2ltZWRpYS5vcmeCDyoud2lraW1lZGlhLm9yZ4IRKi5tLndpa2lt
ZWRpYS5vcmeCDndpa2l2b3lhZ2Uub3JnghAqLndpa2l2b3lhZ2Uub3JnghIqLm0u
d2lraXZveWFnZS5vcmeCDndpa3Rpb25hcnkub3JnghAqLndpa3Rpb25hcnkub3Jn
ghIqLm0ud2lrdGlvbmFyeS5vcmeCDXdpa2lib29rcy5vcmeCDyoud2lraWJvb2tz
Lm9yZ4IRKi5tLndpa2lib29rcy5vcmeCDHdpa2luZXdzLm9yZ4IOKi53aWtpbmV3
cy5vcmeCECoubS53aWtpbmV3cy5vcmeCDHdpa2lkYXRhLm9yZ4IOKi53aWtpZGF0
YS5vcmeCD3dpa2l2ZXJzaXR5Lm9yZ4IRKi53aWtpdmVyc2l0eS5vcmeCEyoubS53
aWtpdmVyc2l0eS5vcmeCDXdpa2lxdW90ZS5vcmeCDyoud2lraXF1b3RlLm9yZ4IR
Ki5tLndpa2lxdW90ZS5vcmeCDW1lZGlhd2lraS5vcmeCDyoubWVkaWF3aWtpLm9y
Z4IOd2lraXNvdXJjZS5vcmeCECoud2lraXNvdXJjZS5vcmeCEioubS53aWtpc291
cmNlLm9yZ4IRd2lraWZ1bmN0aW9ucy5vcmeCEyoud2lraWZ1bmN0aW9ucy5vcmeC
DHdhbGxoYXZlbi5jY4IOKi53YWxsaGF2ZW4uY2OCDWFwa21pcnJvci5jb22CDyou
YXBrbWlycm9yLmNvbYIMYW1hem9uLmNvLmpwgg4qLmFtYXpvbi5jby5qcIIHYmJj
LmNvbYIJKi5iYmMuY29tggsqLiouYmJjLmNvbYIJYmJjLmNvLnVrggsqLmJiYy5j
by51a4INKi4qLmJiYy5jby51a4IKYmJjaS5jby51a4IMKi5iYmNpLmNvLnVrgg4q
LiouYmJjaS5jby51a4IIZXRzeS5jb22CCiouZXRzeS5jb22CCnBpbmltZy5jb22C
DCoucGluaW1nLmNvbYINcGludGVyZXN0LmNvbYIPKi5waW50ZXJlc3QuY29tggtm
LWRyb2lkLm9yZ4INKi5mLWRyb2lkLm9yZ4IKZ29vZ2xlLmNvbYIMKi5nb29nbGUu
Y29tggxhYm91dC5nb29nbGWCCCouZ29vZ2xlgglnb29nbGUuY26CCyouZ29vZ2xl
LmNuggdva3guY29tggkqLm9reC5jb22CBW9rLnJ1ggcqLm9rLnJ1ggx0ZWxlZ3Jh
bS5vcmeCDioudGVsZWdyYW0ub3JnggR0Lm1lggYqLnQubWWCC3RlbGVncmFtLm1l
gg0qLnRlbGVncmFtLm1lghBjZG4tdGVsZWdyYW0ub3JnghIqLmNkbi10ZWxlZ3Jh
bS5vcmeCC255dGltZXMuY29tgg0qLm55dGltZXMuY29tgg8qLioubnl0aW1lcy5j
b22CB255dC5jb22CCSoubnl0LmNvbYIJcHJvdG9uLm1lggsqLnByb3Rvbi5tZYIL
eW91dHViZS5jb22CDSoueW91dHViZS5jb22CCXl0aW1nLmNvbYILKi55dGltZy5j
b22CCWdncGh0LmNvbYILKi5nZ3BodC5jb22CD2dvb2dsZXZpZGVvLmNvbYIRKi5n
b29nbGV2aWRlby5jb22CBzFsaWIuc2uCCSouMWxpYi5za4IIei1saWIuZm2CCiou
ei1saWIuZm2CDWdvb2dsZS5jb20uaGuCDyouZ29vZ2xlLmNvbS5oa4IOZ29vZ2xl
YXBpcy5jb22CECouZ29vZ2xlYXBpcy5jb22CDGdlbGJvb3J1LmNvbYIOKi5nZWxi
b29ydS5jb22CDHJtenNnbG5nLmNvbYIOKi5ybXpzZ2xuZy5jb22CEnNhbmtha3Vj
b21wbGV4LmNvbYIUKi5zYW5rYWt1Y29tcGxleC5jb22CCGl3YXJhLnR2ggoqLml3
YXJhLnR2ggwqLiouaXdhcmEudHaCCmdpdGh1Yi5jb22CDCouZ2l0aHViLmNvbYIV
Z2l0aHVidXNlcmNvbnRlbnQuY29tghcqLmdpdGh1YnVzZXJjb250ZW50LmNvbYIQ
Z2l0aHViYXNzZXRzLmNvbYISKi5naXRodWJhc3NldHMuY29tgglnaXRodWIuaW+C
CyouZ2l0aHViLmlvgg5kdWNrZHVja2dvLmNvbYIQKi5kdWNrZHVja2dvLmNvbTAd
BgNVHQ4EFgQUSb54OrFEhu9Umlbm/KaXKgrwY9cwHwYDVR0jBBgwFoAUf8YT/8Xj
mPpyWCgVxBzOpQEahqowDQYJKoZIhvcNAQELBQADggEBAIqWBE4On7TOqtoXdBUP
LM1xIH9ftF0I3oPDSlRXjYzRT8Mrr31qY5enjIMHMj1POKt6HyZqQaJ1brkpXW76
AwRHut5ZmeJBMCKMs2NOP6/UHSbcWhSAZ/cXZnoVhfKMo/yx8mpME7lzcHr3rM6M
13OgQP534wZkLJAMgq3LZUay76U357X6VYWCyugmz7ABN2AfTkkiMw5k0ICvQOoW
cHPRUX8k5OSbho+GWDxlqsAd7ffdRY7vqJGpdsflsB/uuw3Ybi0w/Br6AW9UqWL2
L67ojojLrrHqYs3/zt+o/c3cqFJNgV6OqOeraRiXcJs033nkbw3bCfQfm1u89NdU
35g=
-----END CERTIFICATE-----
