Certificate:
    Data:
        Version: 3 (0x2)
        Serial Number: 2 (0x2)
        Signature Algorithm: sha256WithRSAEncryption
        Issuer: C=CN, ST=Sichuan, L=Chengdu, O=SNIBypassGUI, CN=Racpast
        Validity
            Not Before: Feb  8 14:50:47 2025 GMT
            Not After : Feb  6 14:50:47 2035 GMT
        Subject: C=CN, ST=Sichuan, L=Chengdu, O=SNIBypassGUI, CN=Racpast/emailAddress=racpast@gmail.com
        Subject Public Key Info:
            Public Key Algorithm: rsaEncryption
                Public-Key: (2048 bit)
                Modulus:
                    00:cc:74:4c:35:98:19:91:16:55:be:4b:a3:c0:c9:
                    66:96:ea:99:25:4d:bb:9d:d2:55:68:31:83:1c:62:
                    0f:99:34:d6:c3:6d:7e:74:2f:e8:de:fc:83:14:6f:
                    1e:4f:cf:f6:ba:fd:3a:a2:dc:ff:76:53:83:f7:8c:
                    81:4c:d1:30:bf:18:54:6f:39:9a:32:fa:b5:ef:ee:
                    3e:7d:c8:07:c7:af:45:8e:4d:49:a7:69:17:4a:d7:
                    3c:63:44:15:4a:c7:56:a5:48:48:c3:28:89:35:5b:
                    bd:fb:69:27:e2:61:ae:a1:29:4e:f4:df:55:30:84:
                    50:f9:a7:58:41:df:0e:24:67:7f:8c:94:f4:d3:90:
                    46:ba:2c:cd:19:90:0c:87:a7:bb:05:b1:ad:4b:33:
                    ed:88:d7:9f:52:62:87:8c:e3:de:dc:09:3a:0b:53:
                    45:e5:f1:86:1d:92:67:57:d0:b9:18:b9:e1:70:07:
                    6a:8b:8a:6d:62:c3:f3:b6:3c:d1:dd:ce:a7:b3:83:
                    b2:a1:c8:92:dc:41:79:09:bf:6d:c3:2a:9e:e1:98:
                    d7:4c:cc:50:66:df:53:73:b6:10:d3:ca:fe:09:10:
                    0a:56:c0:1d:ac:47:61:e9:3e:5f:b5:30:3f:d4:5c:
                    0c:46:98:a0:0b:46:63:db:35:ea:20:3b:33:f2:eb:
                    fa:c1
                Exponent: 65537 (0x10001)
        X509v3 extensions:
            X509v3 Key Usage: 
                Digital Signature
            X509v3 Extended Key Usage: 
                TLS Web Server Authentication, TLS Web Client Authentication
            X509v3 Basic Constraints: 
                CA:FALSE
            X509v3 Subject Alternative Name: 
                DNS:archiveofourown.org, DNS:*.archiveofourown.org, DNS:e-hentai.org, DNS:*.e-hentai.org, DNS:exhentai.org, DNS:*.exhentai.org, DNS:ehgt.org, DNS:*.ehgt.org, DNS:nyaa.si, DNS:*.nyaa.si, DNS:pixiv.net, DNS:*.*.pixiv.net, DNS:fanbox.cc, DNS:*.fanbox.cc, DNS:pximg.net, DNS:*.pximg.net, DNS:pixiv.org, DNS:*.pixiv.org, DNS:*.secure.pixiv.net, DNS:pornhub.com, DNS:*.pornhub.com, DNS:gstatic.com, DNS:*.gstatic.com, DNS:jsdelivr.net, DNS:*.jsdelivr.net, DNS:steamcommunity.com, DNS:*.steamcommunity.com, DNS:wikipedia.org, DNS:*.wikipedia.org, DNS:*.m.wikipedia.org, DNS:wikimedia.org, DNS:*.wikimedia.org, DNS:*.m.wikimedia.org, DNS:wikivoyage.org, DNS:*.wikivoyage.org, DNS:*.m.wikivoyage.org, DNS:wiktionary.org, DNS:*.wiktionary.org, DNS:*.m.wiktionary.org, DNS:wikibooks.org, DNS:*.wikibooks.org, DNS:*.m.wikibooks.org, DNS:wikinews.org, DNS:*.wikinews.org, DNS:*.m.wikinews.org, DNS:wikidata.org, DNS:*.wikidata.org, DNS:wikiversity.org, DNS:*.wikiversity.org, DNS:*.m.wikiversity.org, DNS:wikiquote.org, DNS:*.wikiquote.org, DNS:*.m.wikiquote.org, DNS:mediawiki.org, DNS:*.mediawiki.org, DNS:wikisource.org, DNS:*.wikisource.org, DNS:*.m.wikisource.org, DNS:wikifunctions.org, DNS:*.wikifunctions.org, DNS:wallhaven.cc, DNS:*.wallhaven.cc, DNS:apkmirror.com, DNS:*.apkmirror.com, DNS:amazon.co.jp, DNS:*.amazon.co.jp, DNS:bbc.com, DNS:*.bbc.com, DNS:*.*.bbc.com, DNS:bbc.co.uk, DNS:*.bbc.co.uk, DNS:*.*.bbc.co.uk, DNS:bbci.co.uk, DNS:*.bbci.co.uk, DNS:*.*.bbci.co.uk, DNS:etsy.com, DNS:*.etsy.com, DNS:pinimg.com, DNS:*.pinimg.com, DNS:pinterest.com, DNS:*.pinterest.com, DNS:f-droid.org, DNS:*.f-droid.org, DNS:google.com, DNS:*.google.com, DNS:about.google, DNS:.adtrafficquality.google, DNS:*.api.bbci.co.uk, DNS:*.live.bbc.co.uk, DNS:google.cn, DNS:*.google.cn, DNS:okx.com, DNS:*.okx.com, DNS:ok.ru, DNS:*.ok.ru, DNS:*.ms.ok.ru, DNS:telegram.org, DNS:*.telegram.org, DNS:t.me, DNS:*.t.me, DNS:telegram.me, DNS:*.telegram.me, DNS:cdn-telegram.org, DNS:*.cdn-telegram.org, DNS:nytimes.com, DNS:*.nytimes.com, DNS:*.et.nytimes.com, DNS:*.*.nytimes.com, DNS:nyt.com, DNS:*.nyt.com, DNS:proton.me, DNS:*.proton.me, DNS:youtube.com, DNS:*.youtube.com, DNS:ytimg.com, DNS:*.ytimg.com, DNS:ggpht.com, DNS:*.ggpht.com, DNS:googlevideo.com, DNS:*.googlevideo.com, DNS:1lib.sk, DNS:*.1lib.sk, DNS:z-lib.fm, DNS:*.z-lib.fm, DNS:google.com.hk, DNS:*.google.com.hk, DNS:googleapis.com, DNS:*.googleapis.com, DNS:gelbooru.com, DNS:*.gelbooru.com, DNS:rmzsglng.com, DNS:*.rmzsglng.com, DNS:sankakucomplex.com, DNS:*.sankakucomplex.com, DNS:iwara.tv, DNS:*.iwara.tv, DNS:*.*.iwara.tv, DNS:github.com, DNS:*.github.com, DNS:githubusercontent.com, DNS:*.githubusercontent.com, DNS:githubassets.com, DNS:*.githubassets.com, DNS:github.io, DNS:*.github.io, DNS:duckduckgo.com, DNS:*.duckduckgo.com, DNS:greasyfork.org, DNS:*.greasyfork.org, DNS:hanime.tv, DNS:*.hanime.tv, DNS:*.pixiv.net
            X509v3 Subject Key Identifier: 
                EE:92:A7:D6:37:E7:7A:76:CE:3D:94:69:7E:A4:58:C5:22:A8:18:C5
            X509v3 Authority Key Identifier: 
                B2:C1:52:04:0C:60:1B:AA:36:7C:41:28:E0:05:F2:C8:3D:7E:5E:32
    Signature Algorithm: sha256WithRSAEncryption
    Signature Value:
        05:20:51:bf:c3:73:75:5f:e3:d4:20:54:5b:a7:bd:c2:9f:ad:
        14:89:ee:32:0c:66:6b:65:39:ed:8e:54:53:17:28:5f:8a:c1:
        63:4a:c0:a4:56:e1:2d:a2:21:52:ed:9c:0b:75:9e:7a:9d:a8:
        e4:18:8d:e5:1c:e5:4a:b1:66:78:6b:85:ac:69:b7:ef:fa:f3:
        b5:2a:dc:10:41:bf:d2:10:55:c3:02:9a:72:a1:3f:ed:55:58:
        25:99:7a:8c:6f:28:24:8d:8d:0b:b7:a8:7d:68:b4:01:6a:6d:
        97:7d:ac:7e:6e:51:b4:f0:95:68:e6:fa:0d:45:de:20:6b:a9:
        e4:b6:8e:ac:b7:db:f2:b2:3f:60:1c:91:f7:af:bc:a5:ff:df:
        87:03:fb:68:28:20:06:5f:e2:08:2e:1f:cf:69:b2:7f:b6:da:
        e3:40:44:b8:90:3b:c1:3e:ff:67:62:6b:b4:5c:79:ea:eb:42:
        69:bc:04:c5:cf:d5:32:5f:a7:9c:0f:94:56:d0:92:cb:d4:90:
        0d:00:62:e4:76:5f:f4:4f:03:1d:93:80:8a:74:57:ec:50:a9:
        6c:95:92:f0:c9:32:9a:20:56:28:22:33:e5:53:91:39:35:73:
        35:b4:9a:f9:0e:d4:50:23:b1:73:a7:34:b8:8e:25:e0:eb:8d:
        81:3b:26:fc
-----BEGIN CERTIFICATE-----
MIIMvDCCC6SgAwIBAgIBAjANBgkqhkiG9w0BAQsFADBaMQswCQYDVQQGEwJDTjEQ
MA4GA1UECAwHU2ljaHVhbjEQMA4GA1UEBwwHQ2hlbmdkdTEVMBMGA1UECgwMU05J
QnlwYXNzR1VJMRAwDgYDVQQDDAdSYWNwYXN0MB4XDTI1MDIwODE0NTA0N1oXDTM1
MDIwNjE0NTA0N1owfDELMAkGA1UEBhMCQ04xEDAOBgNVBAgMB1NpY2h1YW4xEDAO
BgNVBAcMB0NoZW5nZHUxFTATBgNVBAoMDFNOSUJ5cGFzc0dVSTEQMA4GA1UEAwwH
UmFjcGFzdDEgMB4GCSqGSIb3DQEJARYRcmFjcGFzdEBnbWFpbC5jb20wggEiMA0G
CSqGSIb3DQEBAQUAA4IBDwAwggEKAoIBAQDMdEw1mBmRFlW+S6PAyWaW6pklTbud
0lVoMYMcYg+ZNNbDbX50L+je/IMUbx5Pz/a6/Tqi3P92U4P3jIFM0TC/GFRvOZoy
+rXv7j59yAfHr0WOTUmnaRdK1zxjRBVKx1alSEjDKIk1W737aSfiYa6hKU7031Uw
hFD5p1hB3w4kZ3+MlPTTkEa6LM0ZkAyHp7sFsa1LM+2I159SYoeM497cCToLU0Xl
8YYdkmdX0LkYueFwB2qLim1iw/O2PNHdzqezg7KhyJLcQXkJv23DKp7hmNdMzFBm
31NzthDTyv4JEApWwB2sR2HpPl+1MD/UXAxGmKALRmPbNeogOzPy6/rBAgMBAAGj
gglpMIIJZTALBgNVHQ8EBAMCB4AwHQYDVR0lBBYwFAYIKwYBBQUHAwEGCCsGAQUF
BwMCMAkGA1UdEwQCMAAwggjqBgNVHREEggjhMIII3YITYXJjaGl2ZW9mb3Vyb3du
Lm9yZ4IVKi5hcmNoaXZlb2ZvdXJvd24ub3JnggxlLWhlbnRhaS5vcmeCDiouZS1o
ZW50YWkub3JnggxleGhlbnRhaS5vcmeCDiouZXhoZW50YWkub3JngghlaGd0Lm9y
Z4IKKi5laGd0Lm9yZ4IHbnlhYS5zaYIJKi5ueWFhLnNpgglwaXhpdi5uZXSCDSou
Ki5waXhpdi5uZXSCCWZhbmJveC5jY4ILKi5mYW5ib3guY2OCCXB4aW1nLm5ldIIL
Ki5weGltZy5uZXSCCXBpeGl2Lm9yZ4ILKi5waXhpdi5vcmeCEiouc2VjdXJlLnBp
eGl2Lm5ldIILcG9ybmh1Yi5jb22CDSoucG9ybmh1Yi5jb22CC2dzdGF0aWMuY29t
gg0qLmdzdGF0aWMuY29tggxqc2RlbGl2ci5uZXSCDiouanNkZWxpdnIubmV0ghJz
dGVhbWNvbW11bml0eS5jb22CFCouc3RlYW1jb21tdW5pdHkuY29tgg13aWtpcGVk
aWEub3Jngg8qLndpa2lwZWRpYS5vcmeCESoubS53aWtpcGVkaWEub3Jngg13aWtp
bWVkaWEub3Jngg8qLndpa2ltZWRpYS5vcmeCESoubS53aWtpbWVkaWEub3Jngg53
aWtpdm95YWdlLm9yZ4IQKi53aWtpdm95YWdlLm9yZ4ISKi5tLndpa2l2b3lhZ2Uu
b3Jngg53aWt0aW9uYXJ5Lm9yZ4IQKi53aWt0aW9uYXJ5Lm9yZ4ISKi5tLndpa3Rp
b25hcnkub3Jngg13aWtpYm9va3Mub3Jngg8qLndpa2lib29rcy5vcmeCESoubS53
aWtpYm9va3Mub3Jnggx3aWtpbmV3cy5vcmeCDioud2lraW5ld3Mub3JnghAqLm0u
d2lraW5ld3Mub3Jnggx3aWtpZGF0YS5vcmeCDioud2lraWRhdGEub3Jngg93aWtp
dmVyc2l0eS5vcmeCESoud2lraXZlcnNpdHkub3JnghMqLm0ud2lraXZlcnNpdHku
b3Jngg13aWtpcXVvdGUub3Jngg8qLndpa2lxdW90ZS5vcmeCESoubS53aWtpcXVv
dGUub3Jngg1tZWRpYXdpa2kub3Jngg8qLm1lZGlhd2lraS5vcmeCDndpa2lzb3Vy
Y2Uub3JnghAqLndpa2lzb3VyY2Uub3JnghIqLm0ud2lraXNvdXJjZS5vcmeCEXdp
a2lmdW5jdGlvbnMub3JnghMqLndpa2lmdW5jdGlvbnMub3Jnggx3YWxsaGF2ZW4u
Y2OCDioud2FsbGhhdmVuLmNjgg1hcGttaXJyb3IuY29tgg8qLmFwa21pcnJvci5j
b22CDGFtYXpvbi5jby5qcIIOKi5hbWF6b24uY28uanCCB2JiYy5jb22CCSouYmJj
LmNvbYILKi4qLmJiYy5jb22CCWJiYy5jby51a4ILKi5iYmMuY28udWuCDSouKi5i
YmMuY28udWuCCmJiY2kuY28udWuCDCouYmJjaS5jby51a4IOKi4qLmJiY2kuY28u
dWuCCGV0c3kuY29tggoqLmV0c3kuY29tggpwaW5pbWcuY29tggwqLnBpbmltZy5j
b22CDXBpbnRlcmVzdC5jb22CDyoucGludGVyZXN0LmNvbYILZi1kcm9pZC5vcmeC
DSouZi1kcm9pZC5vcmeCCmdvb2dsZS5jb22CDCouZ29vZ2xlLmNvbYIMYWJvdXQu
Z29vZ2xlghguYWR0cmFmZmljcXVhbGl0eS5nb29nbGWCECouYXBpLmJiY2kuY28u
dWuCECoubGl2ZS5iYmMuY28udWuCCWdvb2dsZS5jboILKi5nb29nbGUuY26CB29r
eC5jb22CCSoub2t4LmNvbYIFb2sucnWCByoub2sucnWCCioubXMub2sucnWCDHRl
bGVncmFtLm9yZ4IOKi50ZWxlZ3JhbS5vcmeCBHQubWWCBioudC5tZYILdGVsZWdy
YW0ubWWCDSoudGVsZWdyYW0ubWWCEGNkbi10ZWxlZ3JhbS5vcmeCEiouY2RuLXRl
bGVncmFtLm9yZ4ILbnl0aW1lcy5jb22CDSoubnl0aW1lcy5jb22CECouZXQubnl0
aW1lcy5jb22CDyouKi5ueXRpbWVzLmNvbYIHbnl0LmNvbYIJKi5ueXQuY29tgglw
cm90b24ubWWCCyoucHJvdG9uLm1lggt5b3V0dWJlLmNvbYINKi55b3V0dWJlLmNv
bYIJeXRpbWcuY29tggsqLnl0aW1nLmNvbYIJZ2dwaHQuY29tggsqLmdncGh0LmNv
bYIPZ29vZ2xldmlkZW8uY29tghEqLmdvb2dsZXZpZGVvLmNvbYIHMWxpYi5za4IJ
Ki4xbGliLnNrggh6LWxpYi5mbYIKKi56LWxpYi5mbYINZ29vZ2xlLmNvbS5oa4IP
Ki5nb29nbGUuY29tLmhrgg5nb29nbGVhcGlzLmNvbYIQKi5nb29nbGVhcGlzLmNv
bYIMZ2VsYm9vcnUuY29tgg4qLmdlbGJvb3J1LmNvbYIMcm16c2dsbmcuY29tgg4q
LnJtenNnbG5nLmNvbYISc2Fua2FrdWNvbXBsZXguY29tghQqLnNhbmtha3Vjb21w
bGV4LmNvbYIIaXdhcmEudHaCCiouaXdhcmEudHaCDCouKi5pd2FyYS50doIKZ2l0
aHViLmNvbYIMKi5naXRodWIuY29tghVnaXRodWJ1c2VyY29udGVudC5jb22CFyou
Z2l0aHVidXNlcmNvbnRlbnQuY29tghBnaXRodWJhc3NldHMuY29tghIqLmdpdGh1
YmFzc2V0cy5jb22CCWdpdGh1Yi5pb4ILKi5naXRodWIuaW+CDmR1Y2tkdWNrZ28u
Y29tghAqLmR1Y2tkdWNrZ28uY29tgg5ncmVhc3lmb3JrLm9yZ4IQKi5ncmVhc3lm
b3JrLm9yZ4IJaGFuaW1lLnR2ggsqLmhhbmltZS50doILKi5waXhpdi5uZXQwHQYD
VR0OBBYEFO6Sp9Y353p2zj2UaX6kWMUiqBjFMB8GA1UdIwQYMBaAFLLBUgQMYBuq
NnxBKOAF8sg9fl4yMA0GCSqGSIb3DQEBCwUAA4IBAQAFIFG/w3N1X+PUIFRbp73C
n60Uie4yDGZrZTntjlRTFyhfisFjSsCkVuEtoiFS7ZwLdZ56najkGI3lHOVKsWZ4
a4Wsabfv+vO1KtwQQb/SEFXDAppyoT/tVVglmXqMbygkjY0Lt6h9aLQBam2Xfax+
blG08JVo5voNRd4ga6nkto6st9vysj9gHJH3r7yl/9+HA/toKCAGX+IILh/PabJ/
ttrjQES4kDvBPv9nYmu0XHnq60JpvATFz9UyX6ecD5RW0JLL1JANAGLkdl/0TwMd
k4CKdFfsUKlslZLwyTKaIFYoIjPlU5E5NXM1tJr5DtRQI7FzpzS4jiXg642BOyb8
-----END CERTIFICATE-----
